; Function Attrs: mustprogress uwtable
define dso_local void @_ZNSt3__110__time_putC2EPKc(ptr noundef nonnull writeonly align 8 captures(none) dereferenceable(8) initializes((0, 8)) %0, ptr noundef %1) unnamed_addr #2 align 2 personality ptr @__gxx_personality_v0 {
  %3 = alloca %"class.std::__1::basic_string", align 8
  %4 = alloca %"class.std::__1::basic_string", align 8
  %5 = tail call noundef ptr @newlocale(i32 noundef 8127, ptr noundef %1, ptr noundef null) #45
  store ptr %5, ptr %0, align 8, !tbaa !174
  %6 = icmp eq ptr %5, null
  br i1 %6, label %7, label %33

7:                                                ; preds = %2
  call void @llvm.lifetime.start.p0(i64 24, ptr nonnull %3) #45
  call void @llvm.lifetime.start.p0(i64 24, ptr nonnull %4) #45
  call void @_ZNSt3__112basic_stringIcNS_11char_traitsIcEENS_9allocatorIcEEEC2B8ne210000ILi0EEEPKc(ptr noundef nonnull align 8 dereferenceable(24) %4, ptr noundef %1)
  invoke void @_ZNSt3__1plB8ne210000IcNS_11char_traitsIcEENS_9allocatorIcEEEENS_12basic_stringIT_T0_T1_EEPKS6_OS9_(ptr dead_on_unwind nonnull writable sret(%"class.std::__1::basic_string") align 8 %3, ptr noundef nonnull @.str.58, ptr noundef nonnull align 8 dereferenceable(24) %4)
          to label %8 unwind label %16

8:                                                ; preds = %7
  %9 = load i8, ptr %3, align 8
  %10 = and i8 %9, 1
  %.not.i.i.i = icmp eq i8 %10, 0
  %11 = getelementptr inbounds nuw i8, ptr %3, i64 16
  %12 = load ptr, ptr %11, align 8
  %13 = getelementptr inbounds nuw i8, ptr %3, i64 1
  %14 = select i1 %.not.i.i.i, ptr %13, ptr %12
  invoke void @_ZNSt3__121__throw_runtime_errorEPKc(ptr noundef %14) #47
          to label %15 unwind label %18

15:                                               ; preds = %8
  unreachable

16:                                               ; preds = %7
  %17 = landingpad { ptr, i32 }
          cleanup
  br label %_ZNSt3__112basic_stringIcNS_11char_traitsIcEENS_9allocatorIcEEED2Ev.exit

18:                                               ; preds = %8
  %19 = landingpad { ptr, i32 }
          cleanup
  %20 = load i8, ptr %3, align 8
  %21 = and i8 %20, 1
  %.not.i = icmp eq i8 %21, 0
  br i1 %.not.i, label %_ZNSt3__112basic_stringIcNS_11char_traitsIcEENS_9allocatorIcEEED2Ev.exit, label %22

22:                                               ; preds = %18
  %23 = load ptr, ptr %11, align 8, !tbaa !4
  %24 = load i64, ptr %3, align 8
  %25 = and i64 %24, -2
  call void @_ZdlPvm(ptr noundef %23, i64 noundef %25) #46
  br label %_ZNSt3__112basic_stringIcNS_11char_traitsIcEENS_9allocatorIcEEED2Ev.exit

_ZNSt3__112basic_stringIcNS_11char_traitsIcEENS_9allocatorIcEEED2Ev.exit: ; preds = %22, %18, %16
  %.pn = phi { ptr, i32 } [ %17, %16 ], [ %19, %18 ], [ %19, %22 ]
  %26 = load i8, ptr %4, align 8
  %27 = and i8 %26, 1
  %.not.i6 = icmp eq i8 %27, 0
  br i1 %.not.i6, label %_ZNSt3__112basic_stringIcNS_11char_traitsIcEENS_9allocatorIcEEED2Ev.exit7, label %28

28:                                               ; preds = %_ZNSt3__112basic_stringIcNS_11char_traitsIcEENS_9allocatorIcEEED2Ev.exit
  %29 = getelementptr inbounds nuw i8, ptr %4, i64 16
  %30 = load ptr, ptr %29, align 8, !tbaa !4
  %31 = load i64, ptr %4, align 8
  %32 = and i64 %31, -2
  call void @_ZdlPvm(ptr noundef %30, i64 noundef %32) #46
  br label %_ZNSt3__112basic_stringIcNS_11char_traitsIcEENS_9allocatorIcEEED2Ev.exit7

_ZNSt3__112basic_stringIcNS_11char_traitsIcEENS_9allocatorIcEEED2Ev.exit7: ; preds = %_ZNSt3__112basic_stringIcNS_11char_traitsIcEENS_9allocatorIcEEED2Ev.exit, %28
  call void @llvm.lifetime.end.p0(i64 24, ptr nonnull %4) #45
  call void @llvm.lifetime.end.p0(i64 24, ptr nonnull %3) #45
  resume { ptr, i32 } %.pn

33:                                               ; preds = %2
  ret void
}